; Function Attrs: mustprogress nounwind uwtable
define dso_local void @_ZN4node4quic6Stream11EndWritableEv(ptr nocapture noundef nonnull readonly align 8 dereferenceable(256) %this) local_unnamed_addr #3 align 2 {
entry:
  %ptr_.i.i = getelementptr inbounds i8, ptr %this, i64 144
  %0 = load ptr, ptr %ptr_.i.i, align 8
  %destroyed.i = getelementptr inbounds i8, ptr %0, i64 12
  %1 = load i8, ptr %destroyed.i, align 4
  %tobool.i.not = icmp eq i8 %1, 0
  br i1 %tobool.i.not, label %lor.lhs.false, label %return

lor.lhs.false:                                    ; preds = %entry
  %direction_.i.i = getelementptr inbounds i8, ptr %this, i64 172
  %2 = load i32, ptr %direction_.i.i, align 4
  %cmp.i = icmp eq i32 %2, 1
  br i1 %cmp.i, label %if.then.i, label %_ZNK4node4quic6Stream11is_writableEv.exit

if.then.i:                                        ; preds = %lor.lhs.false
  %origin_.i.i = getelementptr inbounds i8, ptr %this, i64 168
  %3 = load i32, ptr %origin_.i.i, align 8
  switch i32 %3, label %_ZNK4node4quic6Stream11is_writableEv.exit [
    i32 0, label %sw.bb.i
    i32 1, label %sw.bb6.i
  ]

sw.bb.i:                                          ; preds = %if.then.i
  %session_.i = getelementptr inbounds i8, ptr %this, i64 160
  %4 = load ptr, ptr %session_.i, align 8, !nonnull !37, !noundef !37
  %self.i.i.i.i = getelementptr inbounds i8, ptr %4, i64 16
  %5 = load ptr, ptr %self.i.i.i.i, align 8
  %call4.i = tail call noundef zeroext i1 @_ZNK4node4quic7Session9is_serverEv(ptr noundef nonnull align 8 dereferenceable(2616) %5) #26
  br i1 %call4.i, label %return, label %_ZNK4node4quic6Stream11is_writableEv.exit

sw.bb6.i:                                         ; preds = %if.then.i
  %session_7.i = getelementptr inbounds i8, ptr %this, i64 160
  %6 = load ptr, ptr %session_7.i, align 8, !nonnull !37, !noundef !37
  %self.i.i.i3.i = getelementptr inbounds i8, ptr %6, i64 16
  %7 = load ptr, ptr %self.i.i.i3.i, align 8
  %call9.i = tail call noundef zeroext i1 @_ZNK4node4quic7Session9is_serverEv(ptr noundef nonnull align 8 dereferenceable(2616) %7) #26
  br i1 %call9.i, label %_ZNK4node4quic6Stream11is_writableEv.exit, label %return

_ZNK4node4quic6Stream11is_writableEv.exit:        ; preds = %lor.lhs.false, %if.then.i, %sw.bb.i, %sw.bb6.i
  %8 = load ptr, ptr %ptr_.i.i, align 8
  %write_ended.i = getelementptr inbounds i8, ptr %8, i64 11
  %9 = load i8, ptr %write_ended.i, align 1
  %cmp14.i = icmp eq i8 %9, 0
  br i1 %cmp14.i, label %if.end, label %return

if.end:                                           ; preds = %_ZNK4node4quic6Stream11is_writableEv.exit
  %outbound_ = getelementptr inbounds i8, ptr %this, i64 176
  %10 = load ptr, ptr %outbound_, align 8
  %cmp.i.i.not = icmp eq ptr %10, null
  br i1 %cmp.i.i.not, label %if.end7, label %if.then4

if.then4:                                         ; preds = %if.end
  %queue_.i = getelementptr inbounds i8, ptr %10, i64 16
  %11 = load ptr, ptr %queue_.i, align 8
  %vtable.i = load ptr, ptr %11, align 8
  %vfn.i = getelementptr inbounds i8, ptr %vtable.i, i64 80
  %12 = load ptr, ptr %vfn.i, align 8
  tail call void %12(ptr noundef nonnull align 8 dereferenceable(8) %11, i64 noundef 0) #26
  %.pre = load ptr, ptr %ptr_.i.i, align 8
  br label %if.end7

if.end7:                                          ; preds = %if.then4, %if.end
  %13 = phi ptr [ %.pre, %if.then4 ], [ %8, %if.end ]
  %write_ended = getelementptr inbounds i8, ptr %13, i64 11
  store i8 1, ptr %write_ended, align 1
  br label %return

return:                                           ; preds = %sw.bb6.i, %sw.bb.i, %entry, %_ZNK4node4quic6Stream11is_writableEv.exit, %if.end7
  ret void
}